; Function Attrs: nofree norecurse nosync nounwind memory(argmem: readwrite) uwtable
define internal void @weight_h264_pixels4_10_c(ptr noundef captures(none) %0, i64 noundef %1, i32 noundef %2, i32 noundef %3, i32 noundef %4, i32 noundef %5) #1 {
  %7 = ashr i64 %1, 1
  %8 = add nsw i32 %3, 2
  %9 = shl i32 %5, %8
  %.not = icmp eq i32 %3, 0
  %10 = add nsw i32 %3, -1
  %11 = shl nuw i32 1, %10
  %12 = select i1 %.not, i32 0, i32 %11
  %.032 = add nsw i32 %9, %12
  %13 = icmp sgt i32 %2, 0
  br i1 %13, label %.lr.ph, label %._crit_edge

.lr.ph:                                           ; preds = %6, %.lr.ph
  %.044 = phi ptr [ %50, %.lr.ph ], [ %0, %6 ]
  %.03143 = phi i32 [ %49, %.lr.ph ], [ 0, %6 ]
  %14 = load i16, ptr %.044, align 2, !tbaa !37
  %15 = zext i16 %14 to i32
  %16 = mul nsw i32 %4, %15
  %17 = add nsw i32 %16, %.032
  %18 = ashr i32 %17, %3
  %19 = tail call i32 @llvm.smax.i32(i32 %18, i32 0)
  %20 = tail call i32 @llvm.umin.i32(i32 %19, i32 1023)
  %21 = trunc nuw nsw i32 %20 to i16
  store i16 %21, ptr %.044, align 2, !tbaa !37
  %22 = getelementptr inbounds nuw i8, ptr %.044, i64 2
  %23 = load i16, ptr %22, align 2, !tbaa !37
  %24 = zext i16 %23 to i32
  %25 = mul nsw i32 %4, %24
  %26 = add nsw i32 %25, %.032
  %27 = ashr i32 %26, %3
  %28 = tail call i32 @llvm.smax.i32(i32 %27, i32 0)
  %29 = tail call i32 @llvm.umin.i32(i32 %28, i32 1023)
  %30 = trunc nuw nsw i32 %29 to i16
  store i16 %30, ptr %22, align 2, !tbaa !37
  %31 = getelementptr inbounds nuw i8, ptr %.044, i64 4
  %32 = load i16, ptr %31, align 2, !tbaa !37
  %33 = zext i16 %32 to i32
  %34 = mul nsw i32 %4, %33
  %35 = add nsw i32 %34, %.032
  %36 = ashr i32 %35, %3
  %37 = tail call i32 @llvm.smax.i32(i32 %36, i32 0)
  %38 = tail call i32 @llvm.umin.i32(i32 %37, i32 1023)
  %39 = trunc nuw nsw i32 %38 to i16
  store i16 %39, ptr %31, align 2, !tbaa !37
  %40 = getelementptr inbounds nuw i8, ptr %.044, i64 6
  %41 = load i16, ptr %40, align 2, !tbaa !37
  %42 = zext i16 %41 to i32
  %43 = mul nsw i32 %4, %42
  %44 = add nsw i32 %43, %.032
  %45 = ashr i32 %44, %3
  %46 = tail call i32 @llvm.smax.i32(i32 %45, i32 0)
  %47 = tail call i32 @llvm.umin.i32(i32 %46, i32 1023)
  %48 = trunc nuw nsw i32 %47 to i16
  store i16 %48, ptr %40, align 2, !tbaa !37
  %49 = add nuw nsw i32 %.03143, 1
  %50 = getelementptr inbounds i16, ptr %.044, i64 %7
  %exitcond.not = icmp eq i32 %49, %2
  br i1 %exitcond.not, label %._crit_edge, label %.lr.ph, !llvm.loop !61

._crit_edge:                                      ; preds = %.lr.ph, %6
  ret void
}